target datalayout = "e-m:e-p270:32:32-p271:32:32-p272:64:64-i64:64-i128:128-f80:128-n8:16:32:64-S128"
target triple = "x86_64-unknown-linux-gnu"

; Function Attrs: mustprogress nounwind uwtable
define hidden noundef i32 @_ZN4llvh19ConvertUTF16toUTF32EPPKtS1_PPjS3_NS_15ConversionFlagsE(ptr noundef %sourceStart, ptr noundef %sourceEnd, ptr noundef %targetStart, ptr noundef %targetEnd, i32 noundef %flags) #0 {
entry:
  %sourceStart.addr = alloca ptr, align 8
  %sourceEnd.addr = alloca ptr, align 8
  %targetStart.addr = alloca ptr, align 8
  %targetEnd.addr = alloca ptr, align 8
  %flags.addr = alloca i32, align 4
  %result = alloca i32, align 4
  %source = alloca ptr, align 8
  %target = alloca ptr, align 8
  %ch = alloca i32, align 4
  %ch2 = alloca i32, align 4
  %oldSource = alloca ptr, align 8
  store ptr %sourceStart, ptr %sourceStart.addr, align 8
  store ptr %sourceEnd, ptr %sourceEnd.addr, align 8
  store ptr %targetStart, ptr %targetStart.addr, align 8
  store ptr %targetEnd, ptr %targetEnd.addr, align 8
  store i32 %flags, ptr %flags.addr, align 4
  store i32 0, ptr %result, align 4
  %0 = load ptr, ptr %sourceStart.addr, align 8
  %1 = load ptr, ptr %0, align 8
  store ptr %1, ptr %source, align 8
  %2 = load ptr, ptr %targetStart.addr, align 8
  %3 = load ptr, ptr %2, align 8
  store ptr %3, ptr %target, align 8
  br label %while.cond

while.cond:                                       ; preds = %if.end33, %entry
  %4 = load ptr, ptr %source, align 8
  %5 = load ptr, ptr %sourceEnd.addr, align 8
  %cmp = icmp ult ptr %4, %5
  br i1 %cmp, label %while.body, label %while.end

while.body:                                       ; preds = %while.cond
  %6 = load ptr, ptr %source, align 8
  store ptr %6, ptr %oldSource, align 8
  %7 = load ptr, ptr %source, align 8
  %incdec.ptr = getelementptr inbounds i16, ptr %7, i32 1
  store ptr %incdec.ptr, ptr %source, align 8
  %8 = load i16, ptr %7, align 2
  %conv = zext i16 %8 to i32
  store i32 %conv, ptr %ch, align 4
  %9 = load i32, ptr %ch, align 4
  %cmp1 = icmp uge i32 %9, 55296
  br i1 %cmp1, label %land.lhs.true, label %if.else20

land.lhs.true:                                    ; preds = %while.body
  %10 = load i32, ptr %ch, align 4
  %cmp2 = icmp ule i32 %10, 56319
  br i1 %cmp2, label %if.then, label %if.else20

if.then:                                          ; preds = %land.lhs.true
  %11 = load ptr, ptr %source, align 8
  %12 = load ptr, ptr %sourceEnd.addr, align 8
  %cmp3 = icmp ult ptr %11, %12
  br i1 %cmp3, label %if.then4, label %if.else17

if.then4:                                         ; preds = %if.then
  %13 = load ptr, ptr %source, align 8
  %14 = load i16, ptr %13, align 2
  %conv5 = zext i16 %14 to i32
  store i32 %conv5, ptr %ch2, align 4
  %15 = load i32, ptr %ch2, align 4
  %cmp6 = icmp uge i32 %15, 56320
  br i1 %cmp6, label %land.lhs.true7, label %if.else

land.lhs.true7:                                   ; preds = %if.then4
  %16 = load i32, ptr %ch2, align 4
  %cmp8 = icmp ule i32 %16, 57343
  br i1 %cmp8, label %if.then9, label %if.else

if.then9:                                         ; preds = %land.lhs.true7
  %17 = load i32, ptr %ch, align 4
  %sub = sub i32 %17, 55296
  %shl = shl i32 %sub, 10
  %18 = load i32, ptr %ch2, align 4
  %sub10 = sub i32 %18, 56320
  %add = add i32 %shl, %sub10
  %add11 = add i32 %add, 65536
  store i32 %add11, ptr %ch, align 4
  %19 = load ptr, ptr %source, align 8
  %incdec.ptr12 = getelementptr inbounds i16, ptr %19, i32 1
  store ptr %incdec.ptr12, ptr %source, align 8
  br label %if.end16

if.else:                                          ; preds = %land.lhs.true7, %if.then4
  %20 = load i32, ptr %flags.addr, align 4
  %cmp13 = icmp eq i32 %20, 0
  br i1 %cmp13, label %if.then14, label %if.end

if.then14:                                        ; preds = %if.else
  %21 = load ptr, ptr %source, align 8
  %incdec.ptr15 = getelementptr inbounds i16, ptr %21, i32 -1
  store ptr %incdec.ptr15, ptr %source, align 8
  store i32 3, ptr %result, align 4
  br label %while.end

if.end:                                           ; preds = %if.else
  br label %if.end16

if.end16:                                         ; preds = %if.end, %if.then9
  br label %if.end19

if.else17:                                        ; preds = %if.then
  %22 = load ptr, ptr %source, align 8
  %incdec.ptr18 = getelementptr inbounds i16, ptr %22, i32 -1
  store ptr %incdec.ptr18, ptr %source, align 8
  store i32 1, ptr %result, align 4
  br label %while.end

if.end19:                                         ; preds = %if.end16
  br label %if.end30

if.else20:                                        ; preds = %land.lhs.true, %while.body
  %23 = load i32, ptr %flags.addr, align 4
  %cmp21 = icmp eq i32 %23, 0
  br i1 %cmp21, label %if.then22, label %if.end29

if.then22:                                        ; preds = %if.else20
  %24 = load i32, ptr %ch, align 4
  %cmp23 = icmp uge i32 %24, 56320
  br i1 %cmp23, label %land.lhs.true24, label %if.end28

land.lhs.true24:                                  ; preds = %if.then22
  %25 = load i32, ptr %ch, align 4
  %cmp25 = icmp ule i32 %25, 57343
  br i1 %cmp25, label %if.then26, label %if.end28

if.then26:                                        ; preds = %land.lhs.true24
  %26 = load ptr, ptr %source, align 8
  %incdec.ptr27 = getelementptr inbounds i16, ptr %26, i32 -1
  store ptr %incdec.ptr27, ptr %source, align 8
  store i32 3, ptr %result, align 4
  br label %while.end

if.end28:                                         ; preds = %land.lhs.true24, %if.then22
  br label %if.end29

if.end29:                                         ; preds = %if.end28, %if.else20
  br label %if.end30

if.end30:                                         ; preds = %if.end29, %if.end19
  %27 = load ptr, ptr %target, align 8
  %28 = load ptr, ptr %targetEnd.addr, align 8
  %cmp31 = icmp uge ptr %27, %28
  br i1 %cmp31, label %if.then32, label %if.end33

if.then32:                                        ; preds = %if.end30
  %29 = load ptr, ptr %oldSource, align 8
  store ptr %29, ptr %source, align 8
  store i32 2, ptr %result, align 4
  br label %while.end

if.end33:                                         ; preds = %if.end30
  %30 = load i32, ptr %ch, align 4
  %31 = load ptr, ptr %target, align 8
  %incdec.ptr34 = getelementptr inbounds i32, ptr %31, i32 1
  store ptr %incdec.ptr34, ptr %target, align 8
  store i32 %30, ptr %31, align 4
  br label %while.cond, !llvm.loop !6

while.end:                                        ; preds = %if.then32, %if.then26, %if.else17, %if.then14, %while.cond
  %32 = load ptr, ptr %source, align 8
  %33 = load ptr, ptr %sourceStart.addr, align 8
  store ptr %32, ptr %33, align 8
  %34 = load ptr, ptr %target, align 8
  %35 = load ptr, ptr %targetStart.addr, align 8
  store ptr %34, ptr %35, align 8
  %36 = load i32, ptr %result, align 4
  ret i32 %36
}