; Function Attrs: mustprogress nofree norecurse nosync nounwind memory(readwrite, inaccessiblemem: none) uwtable
define hidden noundef range(i32 0, 4) i32 @_ZN4llvh19ConvertUTF16toUTF32EPPKtS1_PPjS3_NS_15ConversionFlagsE(ptr noundef captures(none) %sourceStart, ptr noundef readnone %sourceEnd, ptr noundef captures(none) %targetStart, ptr noundef readnone %targetEnd, i32 noundef %flags) local_unnamed_addr #0 {
entry:
  %0 = load ptr, ptr %sourceStart, align 8
  %1 = load ptr, ptr %targetStart, align 8
  %cmp26 = icmp ult ptr %0, %sourceEnd
  br i1 %cmp26, label %while.body.lr.ph, label %while.end

while.body.lr.ph:                                 ; preds = %entry
  %cmp21 = icmp eq i32 %flags, 0
  br i1 %cmp21, label %while.body.us54, label %while.body.us

while.body.us:                                    ; preds = %while.body.lr.ph, %if.end33.us
  %source.028.us = phi ptr [ %source.2.us, %if.end33.us ], [ %0, %while.body.lr.ph ]
  %target.027.us = phi ptr [ %incdec.ptr34.us, %if.end33.us ], [ %1, %while.body.lr.ph ]
  %incdec.ptr.us = getelementptr inbounds nuw i8, ptr %source.028.us, i64 2
  %2 = load i16, ptr %source.028.us, align 2
  %conv.us = zext i16 %2 to i32
  %3 = and i16 %2, -1024
  %or.cond.us = icmp eq i16 %3, -10240
  br i1 %or.cond.us, label %if.then.us, label %if.end30.us

if.then.us:                                       ; preds = %while.body.us
  %cmp3.us = icmp ult ptr %incdec.ptr.us, %sourceEnd
  br i1 %cmp3.us, label %if.then4.us, label %while.end

if.then4.us:                                      ; preds = %if.then.us
  %4 = load i16, ptr %incdec.ptr.us, align 2
  %5 = and i16 %4, -1024
  %or.cond1.us = icmp eq i16 %5, -9216
  br i1 %or.cond1.us, label %if.then9.us, label %if.end30.us

if.then9.us:                                      ; preds = %if.then4.us
  %conv5.us = zext i16 %4 to i32
  %sub.us = shl nuw nsw i32 %conv.us, 10
  %sub10.us = add nsw i32 %sub.us, -56613888
  %add11.us = add nuw nsw i32 %sub10.us, %conv5.us
  %incdec.ptr12.us = getelementptr inbounds nuw i8, ptr %source.028.us, i64 4
  br label %if.end30.us

if.end30.us:                                      ; preds = %if.then4.us, %while.body.us, %if.then9.us
  %ch.0.us = phi i32 [ %add11.us, %if.then9.us ], [ %conv.us, %while.body.us ], [ %conv.us, %if.then4.us ]
  %source.2.us = phi ptr [ %incdec.ptr12.us, %if.then9.us ], [ %incdec.ptr.us, %while.body.us ], [ %incdec.ptr.us, %if.then4.us ]
  %cmp31.not.us = icmp ult ptr %target.027.us, %targetEnd
  br i1 %cmp31.not.us, label %if.end33.us, label %while.end

if.end33.us:                                      ; preds = %if.end30.us
  %incdec.ptr34.us = getelementptr inbounds nuw i8, ptr %target.027.us, i64 4
  store i32 %ch.0.us, ptr %target.027.us, align 4
  %cmp.us = icmp ult ptr %source.2.us, %sourceEnd
  br i1 %cmp.us, label %while.body.us, label %while.end, !llvm.loop !6

while.body.us54:                                  ; preds = %while.body.lr.ph, %if.end33.us76
  %source.028.us55 = phi ptr [ %source.2.us74, %if.end33.us76 ], [ %0, %while.body.lr.ph ]
  %target.027.us56 = phi ptr [ %incdec.ptr34.us77, %if.end33.us76 ], [ %1, %while.body.lr.ph ]
  %incdec.ptr.us57 = getelementptr inbounds nuw i8, ptr %source.028.us55, i64 2
  %6 = load i16, ptr %source.028.us55, align 2
  %conv.us58 = zext i16 %6 to i32
  %7 = and i16 %6, -1024
  switch i16 %7, label %if.end30.us72 [
    i16 -10240, label %if.then.us61
    i16 -9216, label %while.end
  ]

if.then.us61:                                     ; preds = %while.body.us54
  %cmp3.us62 = icmp ult ptr %incdec.ptr.us57, %sourceEnd
  br i1 %cmp3.us62, label %if.then4.us63, label %while.end

if.then4.us63:                                    ; preds = %if.then.us61
  %8 = load i16, ptr %incdec.ptr.us57, align 2
  %9 = and i16 %8, -1024
  %or.cond1.us64 = icmp eq i16 %9, -9216
  br i1 %or.cond1.us64, label %if.then9.us66, label %while.end

if.then9.us66:                                    ; preds = %if.then4.us63
  %conv5.us67 = zext i16 %8 to i32
  %sub.us68 = shl nuw nsw i32 %conv.us58, 10
  %sub10.us69 = add nsw i32 %sub.us68, -56613888
  %add11.us70 = add nsw i32 %sub10.us69, %conv5.us67
  %incdec.ptr12.us71 = getelementptr inbounds nuw i8, ptr %source.028.us55, i64 4
  br label %if.end30.us72

if.end30.us72:                                    ; preds = %while.body.us54, %if.then9.us66
  %ch.0.us73 = phi i32 [ %add11.us70, %if.then9.us66 ], [ %conv.us58, %while.body.us54 ]
  %source.2.us74 = phi ptr [ %incdec.ptr12.us71, %if.then9.us66 ], [ %incdec.ptr.us57, %while.body.us54 ]
  %cmp31.not.us75 = icmp ult ptr %target.027.us56, %targetEnd
  br i1 %cmp31.not.us75, label %if.end33.us76, label %while.end

if.end33.us76:                                    ; preds = %if.end30.us72
  %incdec.ptr34.us77 = getelementptr inbounds nuw i8, ptr %target.027.us56, i64 4
  store i32 %ch.0.us73, ptr %target.027.us56, align 4
  %cmp.us78 = icmp ult ptr %source.2.us74, %sourceEnd
  br i1 %cmp.us78, label %while.body.us54, label %while.end, !llvm.loop !6

while.end:                                        ; preds = %if.end33.us, %if.then.us, %if.end30.us, %if.end33.us76, %if.then4.us63, %if.then.us61, %while.body.us54, %if.end30.us72, %entry
  %target.0.lcssa = phi ptr [ %1, %entry ], [ %target.027.us56, %if.end30.us72 ], [ %target.027.us56, %while.body.us54 ], [ %target.027.us56, %if.then.us61 ], [ %target.027.us56, %if.then4.us63 ], [ %incdec.ptr34.us77, %if.end33.us76 ], [ %target.027.us, %if.end30.us ], [ %target.027.us, %if.then.us ], [ %incdec.ptr34.us, %if.end33.us ]
  %source.0.lcssa = phi ptr [ %0, %entry ], [ %source.028.us55, %if.end30.us72 ], [ %source.028.us55, %while.body.us54 ], [ %source.028.us55, %if.then.us61 ], [ %source.028.us55, %if.then4.us63 ], [ %source.2.us74, %if.end33.us76 ], [ %source.028.us, %if.end30.us ], [ %source.028.us, %if.then.us ], [ %source.2.us, %if.end33.us ]
  %result.0 = phi i32 [ 0, %entry ], [ 2, %if.end30.us72 ], [ 3, %while.body.us54 ], [ 1, %if.then.us61 ], [ 3, %if.then4.us63 ], [ 0, %if.end33.us76 ], [ 2, %if.end30.us ], [ 1, %if.then.us ], [ 0, %if.end33.us ]
  store ptr %source.0.lcssa, ptr %sourceStart, align 8
  store ptr %target.0.lcssa, ptr %targetStart, align 8
  ret i32 %result.0
}